target datalayout = "e-m:e-p270:32:32-p271:32:32-p272:64:64-i64:64-i128:128-f80:128-n8:16:32:64-S128"
target triple = "x86_64-pc-linux-gnu"

%union.SourceSpan = type { i64 }
%struct.ABIArgInfo_ = type { i32, i8, %struct.anon.23, %union.anon.24 }
%struct.anon.23 = type { i8 }
%union.anon.24 = type { %struct.anon.27 }
%struct.anon.27 = type { i8, i8, ptr, ptr }
%struct.GenContext_ = type { i8, ptr, ptr, ptr, ptr, ptr, ptr, ptr, ptr, ptr, ptr, ptr, ptr, ptr, ptr, ptr, ptr, ptr, ptr, ptr, ptr, ptr, ptr, ptr, ptr, ptr, ptr, ptr, ptr, ptr, ptr, ptr, ptr, %struct.anon.85, i32, i32, %struct.DebugContext, ptr, ptr, ptr, %struct.BEValue, i8, %union.SourceSpan, ptr, ptr, ptr, ptr }
%struct.anon.85 = type { ptr, ptr, ptr }
%struct.DebugContext = type { i16, ptr, ptr, %struct.DebugFile_, ptr, ptr, ptr, ptr }
%struct.DebugFile_ = type { i16, ptr }
%struct.BEValue = type { i8, i32, ptr, ptr, ptr }
%struct.anon.25 = type { %struct.AbiType, %struct.AbiType }
%struct.AbiType = type { %union.anon.26 }
%union.anon.26 = type { ptr }

@.str = private unnamed_addr constant [36 x i8] c"FATAL ERROR %s -> in %s @ in %s:%d \00", align 1
@.str.1 = private unnamed_addr constant [22 x i8] c"Should be unreachable\00", align 1
@.str.2 = private unnamed_addr constant [118 x i8] c"generated/home/dtcxzyw/WorkSpace/Projects/compilers/llvm-opt-benchmark/bench/c3c/c3c/src/compiler/llvm_codegen_type.c\00", align 1
@type_uint = external global ptr, align 8
@__func__.llvm_get_coerce_type = private unnamed_addr constant [21 x i8] c"llvm_get_coerce_type\00", align 1

; Function Attrs: nounwind uwtable
define internal zeroext i1 @abi_type_is_type(ptr %0) #0 {
  %2 = alloca %struct.AbiType, align 8
  %3 = getelementptr inbounds %struct.AbiType, ptr %2, i32 0, i32 0
  %4 = getelementptr inbounds %union.anon.26, ptr %3, i32 0, i32 0
  store ptr %0, ptr %4, align 8
  %5 = getelementptr inbounds %struct.AbiType, ptr %2, i32 0, i32 0
  %6 = load i64, ptr %5, align 8
  %7 = and i64 %6, 1
  %8 = icmp ne i64 %7, 0
  %9 = xor i1 %8, true
  ret i1 %9
}

; Function Attrs: nounwind uwtable
define dso_local ptr @llvm_get_twostruct(ptr noundef %0, ptr noundef %1, ptr noundef %2) #0 {
  %4 = alloca ptr, align 8
  %5 = alloca ptr, align 8
  %6 = alloca ptr, align 8
  %7 = alloca [2 x ptr], align 16
  store ptr %0, ptr %4, align 8
  store ptr %1, ptr %5, align 8
  store ptr %2, ptr %6, align 8
  %8 = getelementptr inbounds [2 x ptr], ptr %7, i64 0, i64 0
  %9 = load ptr, ptr %5, align 8
  store ptr %9, ptr %8, align 8
  %10 = getelementptr inbounds ptr, ptr %8, i64 1
  %11 = load ptr, ptr %6, align 8
  store ptr %11, ptr %10, align 8
  %12 = load ptr, ptr %4, align 8
  %13 = getelementptr inbounds %struct.GenContext_, ptr %12, i32 0, i32 5
  %14 = load ptr, ptr %13, align 8
  %15 = getelementptr inbounds [2 x ptr], ptr %7, i64 0, i64 0
  %16 = call ptr @LLVMStructTypeInContext(ptr noundef %14, ptr noundef %15, i32 noundef 2, i32 noundef 0)
  ret ptr %16
}

; Function Attrs: nounwind uwtable
define dso_local ptr @llvm_abi_type(ptr noundef %0, ptr %1) #0 {
  %3 = alloca ptr, align 8
  %4 = alloca %struct.AbiType, align 8
  %5 = alloca ptr, align 8
  %6 = getelementptr inbounds %struct.AbiType, ptr %4, i32 0, i32 0
  %7 = getelementptr inbounds %union.anon.26, ptr %6, i32 0, i32 0
  store ptr %1, ptr %7, align 8
  store ptr %0, ptr %5, align 8
  %8 = getelementptr inbounds %struct.AbiType, ptr %4, i32 0, i32 0
  %9 = getelementptr inbounds %union.anon.26, ptr %8, i32 0, i32 0
  %10 = load ptr, ptr %9, align 8
  %11 = call zeroext i1 @abi_type_is_type(ptr %10)
  br i1 %11, label %12, label %17

12:                                               ; preds = %2
  %13 = load ptr, ptr %5, align 8
  %14 = getelementptr inbounds %struct.AbiType, ptr %4, i32 0, i32 0
  %15 = load ptr, ptr %14, align 8
  %16 = call ptr @llvm_get_type(ptr noundef %13, ptr noundef %15)
  store ptr %16, ptr %3, align 8
  br label %26

17:                                               ; preds = %2
  %18 = load ptr, ptr %5, align 8
  %19 = getelementptr inbounds %struct.GenContext_, ptr %18, i32 0, i32 5
  %20 = load ptr, ptr %19, align 8
  %21 = getelementptr inbounds %struct.AbiType, ptr %4, i32 0, i32 0
  %22 = load i64, ptr %21, align 8
  %23 = sub i64 %22, 1
  %24 = trunc i64 %23 to i32
  %25 = call ptr @LLVMIntTypeInContext(ptr noundef %20, i32 noundef %24)
  store ptr %25, ptr %3, align 8
  br label %26

26:                                               ; preds = %17, %12
  %27 = load ptr, ptr %3, align 8
  ret ptr %27
}

; Function Attrs: nounwind uwtable
define dso_local ptr @llvm_get_coerce_type(ptr noundef %0, ptr noundef %1) #0 {
  %3 = alloca ptr, align 8
  %4 = alloca ptr, align 8
  %5 = alloca ptr, align 8
  %6 = alloca ptr, align 8
  %7 = alloca [10 x ptr], align 16
  %8 = alloca i32, align 4
  %9 = alloca ptr, align 8
  %10 = alloca ptr, align 8
  store ptr %0, ptr %4, align 8
  store ptr %1, ptr %5, align 8
  %11 = load ptr, ptr %5, align 8
  %12 = getelementptr inbounds %struct.ABIArgInfo_, ptr %11, i32 0, i32 1
  %13 = load i8, ptr %12, align 4
  %14 = and i8 %13, 63
  %15 = zext i8 %14 to i32
  switch i32 %15, label %69 [
    i32 5, label %16
    i32 2, label %45
    i32 0, label %66
    i32 1, label %66
    i32 3, label %66
    i32 7, label %66
    i32 8, label %66
    i32 4, label %66
    i32 6, label %66
  ]

16:                                               ; preds = %2
  %17 = load ptr, ptr %4, align 8
  %18 = load ptr, ptr @type_uint, align 8
  %19 = call ptr @llvm_get_type(ptr noundef %17, ptr noundef %18)
  store ptr %19, ptr %6, align 8
  store i32 0, ptr %8, align 4
  br label %20

20:                                               ; preds = %32, %16
  %21 = load i32, ptr %8, align 4
  %22 = load ptr, ptr %5, align 8
  %23 = getelementptr inbounds %struct.ABIArgInfo_, ptr %22, i32 0, i32 3
  %24 = load i8, ptr %23, align 8
  %25 = zext i8 %24 to i32
  %26 = icmp ult i32 %21, %25
  br i1 %26, label %27, label %35

27:                                               ; preds = %20
  %28 = load ptr, ptr %6, align 8
  %29 = load i32, ptr %8, align 4
  %30 = zext i32 %29 to i64
  %31 = getelementptr inbounds [10 x ptr], ptr %7, i64 0, i64 %30
  store ptr %28, ptr %31, align 8
  br label %32

32:                                               ; preds = %27
  %33 = load i32, ptr %8, align 4
  %34 = add i32 %33, 1
  store i32 %34, ptr %8, align 4
  br label %20, !llvm.loop !13

35:                                               ; preds = %20
  %36 = load ptr, ptr %4, align 8
  %37 = getelementptr inbounds %struct.GenContext_, ptr %36, i32 0, i32 5
  %38 = load ptr, ptr %37, align 8
  %39 = getelementptr inbounds [10 x ptr], ptr %7, i64 0, i64 0
  %40 = load ptr, ptr %5, align 8
  %41 = getelementptr inbounds %struct.ABIArgInfo_, ptr %40, i32 0, i32 3
  %42 = load i8, ptr %41, align 8
  %43 = zext i8 %42 to i32
  %44 = call ptr @LLVMStructTypeInContext(ptr noundef %38, ptr noundef %39, i32 noundef %43, i32 noundef 0)
  store ptr %44, ptr %3, align 8
  br label %71

45:                                               ; preds = %2
  %46 = load ptr, ptr %4, align 8
  %47 = load ptr, ptr %5, align 8
  %48 = getelementptr inbounds %struct.ABIArgInfo_, ptr %47, i32 0, i32 3
  %49 = getelementptr inbounds %struct.anon.25, ptr %48, i32 0, i32 0
  %50 = getelementptr inbounds %struct.AbiType, ptr %49, i32 0, i32 0
  %51 = getelementptr inbounds %union.anon.26, ptr %50, i32 0, i32 0
  %52 = load ptr, ptr %51, align 8
  %53 = call ptr @llvm_abi_type(ptr noundef %46, ptr %52)
  store ptr %53, ptr %9, align 8
  %54 = load ptr, ptr %4, align 8
  %55 = load ptr, ptr %5, align 8
  %56 = getelementptr inbounds %struct.ABIArgInfo_, ptr %55, i32 0, i32 3
  %57 = getelementptr inbounds %struct.anon.25, ptr %56, i32 0, i32 1
  %58 = getelementptr inbounds %struct.AbiType, ptr %57, i32 0, i32 0
  %59 = getelementptr inbounds %union.anon.26, ptr %58, i32 0, i32 0
  %60 = load ptr, ptr %59, align 8
  %61 = call ptr @llvm_abi_type(ptr noundef %54, ptr %60)
  store ptr %61, ptr %10, align 8
  %62 = load ptr, ptr %4, align 8
  %63 = load ptr, ptr %9, align 8
  %64 = load ptr, ptr %10, align 8
  %65 = call ptr @llvm_get_twostruct(ptr noundef %62, ptr noundef %63, ptr noundef %64)
  store ptr %65, ptr %3, align 8
  br label %71

66:                                               ; preds = %2, %2, %2, %2, %2, %2, %2
  br label %67

67:                                               ; preds = %66
  call void (ptr, ...) @error_exit(ptr noundef @.str, ptr noundef @.str.1, ptr noundef @__func__.llvm_get_coerce_type, ptr noundef @.str.2, i32 noundef 398) #4
  unreachable

68:                                               ; No predecessors!
  br label %69

69:                                               ; preds = %68, %2
  br label %70

70:                                               ; preds = %69
  call void (ptr, ...) @error_exit(ptr noundef @.str, ptr noundef @.str.1, ptr noundef @__func__.llvm_get_coerce_type, ptr noundef @.str.2, i32 noundef 400) #4
  unreachable

71:                                               ; preds = %45, %35
  %72 = load ptr, ptr %3, align 8
  ret ptr %72
}