; Function Attrs: nounwind uwtable
define dso_local ptr @llvm_get_coerce_type(ptr noundef %0, ptr nocapture noundef readonly %1) local_unnamed_addr #0 {
  %3 = alloca [2 x ptr], align 16
  %4 = alloca [10 x ptr], align 16
  %5 = getelementptr inbounds i8, ptr %1, i64 4
  %6 = load i8, ptr %5, align 4
  %7 = and i8 %6, 63
  switch i8 %7, label %48 [
    i8 5, label %8
    i8 2, label %18
    i8 0, label %47
    i8 1, label %47
    i8 3, label %47
    i8 7, label %47
    i8 8, label %47
    i8 4, label %47
    i8 6, label %47
  ]

8:                                                ; preds = %2
  %9 = load ptr, ptr @type_uint, align 8
  %10 = tail call ptr @llvm_get_type(ptr noundef %0, ptr noundef %9)
  %11 = getelementptr inbounds i8, ptr %1, i64 8
  %12 = load i8, ptr %11, align 8
  %13 = zext i8 %12 to i32
  %.not = icmp eq i8 %12, 0
  br i1 %.not, label %._crit_edge, label %.lr.ph.preheader

.lr.ph.preheader:                                 ; preds = %8
  %wide.trip.count = zext i8 %12 to i64
  br label %.lr.ph

.lr.ph:                                           ; preds = %.lr.ph.preheader, %.lr.ph
  %indvars.iv = phi i64 [ 0, %.lr.ph.preheader ], [ %indvars.iv.next, %.lr.ph ]
  %14 = getelementptr inbounds [10 x ptr], ptr %4, i64 0, i64 %indvars.iv
  store ptr %10, ptr %14, align 8
  %indvars.iv.next = add nuw nsw i64 %indvars.iv, 1
  %exitcond.not = icmp eq i64 %indvars.iv.next, %wide.trip.count
  br i1 %exitcond.not, label %._crit_edge, label %.lr.ph, !llvm.loop !13

._crit_edge:                                      ; preds = %.lr.ph, %8
  %15 = getelementptr inbounds i8, ptr %0, i64 40
  %16 = load ptr, ptr %15, align 8
  %17 = call ptr @LLVMStructTypeInContext(ptr noundef %16, ptr noundef nonnull %4, i32 noundef %13, i32 noundef 0) #6
  br label %49

18:                                               ; preds = %2
  %19 = getelementptr inbounds i8, ptr %1, i64 8
  %20 = load ptr, ptr %19, align 8
  %21 = ptrtoint ptr %20 to i64
  %22 = and i64 %21, 1
  %.not.i.i = icmp eq i64 %22, 0
  br i1 %.not.i.i, label %23, label %25

23:                                               ; preds = %18
  %24 = tail call ptr @llvm_get_type(ptr noundef %0, ptr noundef %20)
  br label %llvm_abi_type.exit

25:                                               ; preds = %18
  %26 = getelementptr inbounds i8, ptr %0, i64 40
  %27 = load ptr, ptr %26, align 8
  %28 = trunc i64 %21 to i32
  %29 = add nsw i32 %28, -1
  %30 = tail call ptr @LLVMIntTypeInContext(ptr noundef %27, i32 noundef %29) #6
  br label %llvm_abi_type.exit

llvm_abi_type.exit:                               ; preds = %23, %25
  %.0.i = phi ptr [ %24, %23 ], [ %30, %25 ]
  %31 = getelementptr inbounds i8, ptr %1, i64 16
  %32 = load ptr, ptr %31, align 8
  %33 = ptrtoint ptr %32 to i64
  %34 = and i64 %33, 1
  %.not.i.i18 = icmp eq i64 %34, 0
  br i1 %.not.i.i18, label %35, label %37

35:                                               ; preds = %llvm_abi_type.exit
  %36 = tail call ptr @llvm_get_type(ptr noundef %0, ptr noundef %32)
  br label %llvm_abi_type.exit20

37:                                               ; preds = %llvm_abi_type.exit
  %38 = getelementptr inbounds i8, ptr %0, i64 40
  %39 = load ptr, ptr %38, align 8
  %40 = trunc i64 %33 to i32
  %41 = add nsw i32 %40, -1
  %42 = tail call ptr @LLVMIntTypeInContext(ptr noundef %39, i32 noundef %41) #6
  br label %llvm_abi_type.exit20

llvm_abi_type.exit20:                             ; preds = %35, %37
  %.0.i19 = phi ptr [ %36, %35 ], [ %42, %37 ]
  call void @llvm.lifetime.start.p0(i64 16, ptr nonnull %3)
  store ptr %.0.i, ptr %3, align 16
  %43 = getelementptr inbounds i8, ptr %3, i64 8
  store ptr %.0.i19, ptr %43, align 8
  %44 = getelementptr inbounds i8, ptr %0, i64 40
  %45 = load ptr, ptr %44, align 8
  %46 = call ptr @LLVMStructTypeInContext(ptr noundef %45, ptr noundef nonnull %3, i32 noundef 2, i32 noundef 0) #6
  call void @llvm.lifetime.end.p0(i64 16, ptr nonnull %3)
  br label %49

47:                                               ; preds = %2, %2, %2, %2, %2, %2, %2
  tail call void (ptr, ...) @error_exit(ptr noundef nonnull @.str, ptr noundef nonnull @.str.1, ptr noundef nonnull @__func__.llvm_get_coerce_type, ptr noundef nonnull @.str.2, i32 noundef 398) #5
  unreachable

48:                                               ; preds = %2
  tail call void (ptr, ...) @error_exit(ptr noundef nonnull @.str, ptr noundef nonnull @.str.1, ptr noundef nonnull @__func__.llvm_get_coerce_type, ptr noundef nonnull @.str.2, i32 noundef 400) #5
  unreachable

49:                                               ; preds = %llvm_abi_type.exit20, %._crit_edge
  %.0 = phi ptr [ %46, %llvm_abi_type.exit20 ], [ %17, %._crit_edge ]
  ret ptr %.0
}